target datalayout = "e-m:e-p270:32:32-p271:32:32-p272:64:64-i64:64-i128:128-f80:128-n8:16:32:64-S128"
target triple = "x86_64-pc-linux-gnu"

%"class.jsonnet::Jsonnet" = type { ptr, %"class.std::__cxx11::basic_string" }
%"class.std::__cxx11::basic_string" = type { %"struct.std::__cxx11::basic_string<char>::_Alloc_hider", i64, %union.anon }
%"struct.std::__cxx11::basic_string<char>::_Alloc_hider" = type { ptr }
%union.anon = type { i64, [8 x i8] }
%"struct.std::pair.3" = type { ptr, ptr }
%"struct.std::pair" = type <{ %"struct.std::_Rb_tree_iterator", i8, [7 x i8] }>
%"struct.std::_Rb_tree_iterator" = type { ptr }
%"class.std::map" = type { %"class.std::_Rb_tree" }
%"class.std::_Rb_tree" = type { %"struct.std::_Rb_tree<std::__cxx11::basic_string<char>, std::pair<const std::__cxx11::basic_string<char>, std::__cxx11::basic_string<char>>, std::_Select1st<std::pair<const std::__cxx11::basic_string<char>, std::__cxx11::basic_string<char>>>, std::less<std::__cxx11::basic_string<char>>>::_Rb_tree_impl" }
%"struct.std::_Rb_tree<std::__cxx11::basic_string<char>, std::pair<const std::__cxx11::basic_string<char>, std::__cxx11::basic_string<char>>, std::_Select1st<std::pair<const std::__cxx11::basic_string<char>, std::__cxx11::basic_string<char>>>, std::less<std::__cxx11::basic_string<char>>>::_Rb_tree_impl" = type { [8 x i8], %"struct.std::_Rb_tree_header" }
%"struct.std::_Rb_tree_header" = type { %"struct.std::_Rb_tree_node_base", i64 }
%"struct.std::_Rb_tree_node_base" = type { i32, ptr, ptr, ptr }

; Function Attrs: mustprogress nounwind uwtable
define linkonce_odr void @_ZNSt4pairIPKcS1_EC2IRS1_S4_TnNSt9enable_ifIXaaclsr5_PCCPE22_MoveConstructiblePairIT_T0_EEclsr5_PCCPE30_ImplicitlyMoveConvertiblePairIS6_S7_EEEbE4typeELb1EEEOS6_OS7_(ptr noundef nonnull align 8 dereferenceable(16) %0, ptr noundef nonnull align 8 dereferenceable(8) %1, ptr noundef nonnull align 8 dereferenceable(8) %2) unnamed_addr #0 comdat align 2 {
  %4 = alloca ptr, align 8
  %5 = alloca ptr, align 8
  %6 = alloca ptr, align 8
  store ptr %0, ptr %4, align 8, !tbaa !38
  store ptr %1, ptr %5, align 8, !tbaa !40
  store ptr %2, ptr %6, align 8, !tbaa !40
  %7 = load ptr, ptr %4, align 8
  %8 = getelementptr inbounds nuw %"struct.std::pair.3", ptr %7, i32 0, i32 0
  %9 = load ptr, ptr %5, align 8, !tbaa !40
  %10 = load ptr, ptr %9, align 8, !tbaa !22
  store ptr %10, ptr %8, align 8, !tbaa !101
  %11 = getelementptr inbounds nuw %"struct.std::pair.3", ptr %7, i32 0, i32 1
  %12 = load ptr, ptr %6, align 8, !tbaa !40
  %13 = load ptr, ptr %12, align 8, !tbaa !22
  store ptr %13, ptr %11, align 8, !tbaa !103
  ret void
}

; Function Attrs: mustprogress uwtable
define linkonce_odr { ptr, i8 } @_ZNSt3mapINSt7__cxx1112basic_stringIcSt11char_traitsIcESaIcEEES5_St4lessIS5_ESaISt4pairIKS5_S5_EEE6insertIS8_IPKcSF_EEENSt9enable_ifIXsr16is_constructibleISA_T_EE5valueES8_ISt17_Rb_tree_iteratorISA_EbEE4typeEOSI_(ptr noundef nonnull align 8 dereferenceable(48) %0, ptr noundef nonnull align 8 dereferenceable(16) %1) #3 comdat align 2 {
  %3 = alloca %"struct.std::pair", align 8
  %4 = alloca ptr, align 8
  %5 = alloca ptr, align 8
  %6 = alloca { ptr, i8 }, align 8
  store ptr %0, ptr %4, align 8, !tbaa !31
  store ptr %1, ptr %5, align 8, !tbaa !38
  %7 = load ptr, ptr %4, align 8
  %8 = getelementptr inbounds nuw %"class.std::map", ptr %7, i32 0, i32 0
  %9 = load ptr, ptr %5, align 8, !tbaa !38
  %10 = call { ptr, i8 } @_ZNSt8_Rb_treeINSt7__cxx1112basic_stringIcSt11char_traitsIcESaIcEEESt4pairIKS5_S5_ESt10_Select1stIS8_ESt4lessIS5_ESaIS8_EE17_M_emplace_uniqueIJS6_IPKcSH_EEEES6_ISt17_Rb_tree_iteratorIS8_EbEDpOT_(ptr noundef nonnull align 8 dereferenceable(48) %8, ptr noundef nonnull align 8 dereferenceable(16) %9)
  store { ptr, i8 } %10, ptr %6, align 8
  call void @llvm.memcpy.p0.p0.i64(ptr align 8 %3, ptr align 8 %6, i64 9, i1 false)
  %11 = load { ptr, i8 }, ptr %3, align 8
  ret { ptr, i8 } %11
}

; Function Attrs: mustprogress uwtable
define linkonce_odr { ptr, ptr } @_ZSt9make_pairIRPKcS2_ESt4pairINSt25__strip_reference_wrapperINSt5decayIT_E4typeEE6__typeENS4_INS5_IT0_E4typeEE6__typeEEOS6_OSB_(ptr noundef nonnull align 8 dereferenceable(8) %0, ptr noundef nonnull align 8 dereferenceable(8) %1) #3 comdat {
  %3 = alloca %"struct.std::pair.3", align 8
  %4 = alloca ptr, align 8
  %5 = alloca ptr, align 8
  store ptr %0, ptr %4, align 8, !tbaa !40
  store ptr %1, ptr %5, align 8, !tbaa !40
  %6 = load ptr, ptr %4, align 8, !tbaa !40
  %7 = load ptr, ptr %5, align 8, !tbaa !40
  call void @_ZNSt4pairIPKcS1_EC2IRS1_S4_TnNSt9enable_ifIXaaclsr5_PCCPE22_MoveConstructiblePairIT_T0_EEclsr5_PCCPE30_ImplicitlyMoveConvertiblePairIS6_S7_EEEbE4typeELb1EEEOS6_OS7_(ptr noundef nonnull align 8 dereferenceable(16) %3, ptr noundef nonnull align 8 dereferenceable(8) %6, ptr noundef nonnull align 8 dereferenceable(8) %7)
  %8 = load { ptr, ptr }, ptr %3, align 8
  ret { ptr, ptr } %8
}

; Function Attrs: mustprogress nounwind uwtable
define linkonce_odr noundef i64 @_ZNSt11char_traitsIcE6lengthEPKc(ptr noundef %0) #0 comdat align 2 {
  %2 = alloca ptr, align 8
  store ptr %0, ptr %2, align 8, !tbaa !22
  %3 = load ptr, ptr %2, align 8, !tbaa !22
  %4 = call i64 @strlen(ptr noundef %3) #15
  ret i64 %4
}

; Function Attrs: mustprogress nounwind uwtable
define available_externally noundef i64 @_ZNKSt7__cxx1112basic_stringIcSt11char_traitsIcESaIcEE4sizeEv(ptr noundef nonnull align 8 dereferenceable(32) %0) #0 align 2 {
  %2 = alloca ptr, align 8
  store ptr %0, ptr %2, align 8, !tbaa !18
  %3 = load ptr, ptr %2, align 8
  %4 = getelementptr inbounds nuw %"class.std::__cxx11::basic_string", ptr %3, i32 0, i32 1
  %5 = load i64, ptr %4, align 8, !tbaa !94
  ret i64 %5
}

; Function Attrs: mustprogress nounwind uwtable
define available_externally noundef ptr @_ZNKSt7__cxx1112basic_stringIcSt11char_traitsIcESaIcEE7_M_dataEv(ptr noundef nonnull align 8 dereferenceable(32) %0) #0 align 2 {
  %2 = alloca ptr, align 8
  store ptr %0, ptr %2, align 8, !tbaa !18
  %3 = load ptr, ptr %2, align 8
  %4 = getelementptr inbounds nuw %"class.std::__cxx11::basic_string", ptr %3, i32 0, i32 0
  %5 = getelementptr inbounds nuw %"struct.std::__cxx11::basic_string<char>::_Alloc_hider", ptr %4, i32 0, i32 0
  %6 = load ptr, ptr %5, align 8, !tbaa !97
  ret ptr %6
}

; Function Attrs: mustprogress uwtable
define internal void @_ZN7jsonnet12_GLOBAL__N_116parseMultiOutputEPKcPSt3mapINSt7__cxx1112basic_stringIcSt11char_traitsIcESaIcEEES9_St4lessIS9_ESaISt4pairIKS9_S9_EEE(ptr noundef %0, ptr noundef %1) #3 {
  %3 = alloca ptr, align 8
  %4 = alloca ptr, align 8
  %5 = alloca ptr, align 8
  %6 = alloca ptr, align 8
  %7 = alloca ptr, align 8
  %8 = alloca ptr, align 8
  %9 = alloca %"struct.std::pair.3", align 8
  %10 = alloca %"struct.std::pair", align 8
  store ptr %0, ptr %3, align 8, !tbaa !22
  store ptr %1, ptr %4, align 8, !tbaa !31
  call void @llvm.lifetime.start.p0(i64 8, ptr %5) #15
  %11 = load ptr, ptr %3, align 8, !tbaa !22
  store ptr %11, ptr %5, align 8, !tbaa !22
  br label %12

12:                                               ; preds = %41, %2
  %13 = load ptr, ptr %5, align 8, !tbaa !22
  %14 = load i8, ptr %13, align 1, !tbaa !33
  %15 = sext i8 %14 to i32
  %16 = icmp ne i32 %15, 0
  br i1 %16, label %18, label %17

17:                                               ; preds = %12
  call void @llvm.lifetime.end.p0(i64 8, ptr %5) #15
  br label %56

18:                                               ; preds = %12
  call void @llvm.lifetime.start.p0(i64 8, ptr %6) #15
  %19 = load ptr, ptr %5, align 8, !tbaa !22
  store ptr %19, ptr %6, align 8, !tbaa !22
  call void @llvm.lifetime.start.p0(i64 8, ptr %7) #15
  %20 = load ptr, ptr %5, align 8, !tbaa !22
  store ptr %20, ptr %7, align 8, !tbaa !22
  br label %21

21:                                               ; preds = %26, %18
  %22 = load ptr, ptr %7, align 8, !tbaa !22
  %23 = load i8, ptr %22, align 1, !tbaa !33
  %24 = sext i8 %23 to i32
  %25 = icmp ne i32 %24, 0
  br i1 %25, label %26, label %29

26:                                               ; preds = %21
  %27 = load ptr, ptr %7, align 8, !tbaa !22
  %28 = getelementptr inbounds nuw i8, ptr %27, i32 1
  store ptr %28, ptr %7, align 8, !tbaa !22
  br label %21, !llvm.loop !34

29:                                               ; preds = %21
  %30 = load ptr, ptr %7, align 8, !tbaa !22
  %31 = getelementptr inbounds nuw i8, ptr %30, i32 1
  store ptr %31, ptr %7, align 8, !tbaa !22
  call void @llvm.lifetime.start.p0(i64 8, ptr %8) #15
  %32 = load ptr, ptr %7, align 8, !tbaa !22
  store ptr %32, ptr %8, align 8, !tbaa !22
  br label %33

33:                                               ; preds = %38, %29
  %34 = load ptr, ptr %7, align 8, !tbaa !22
  %35 = load i8, ptr %34, align 1, !tbaa !33
  %36 = sext i8 %35 to i32
  %37 = icmp ne i32 %36, 0
  br i1 %37, label %38, label %41

38:                                               ; preds = %33
  %39 = load ptr, ptr %7, align 8, !tbaa !22
  %40 = getelementptr inbounds nuw i8, ptr %39, i32 1
  store ptr %40, ptr %7, align 8, !tbaa !22
  br label %33, !llvm.loop !36

41:                                               ; preds = %33
  %42 = load ptr, ptr %7, align 8, !tbaa !22
  %43 = getelementptr inbounds nuw i8, ptr %42, i32 1
  store ptr %43, ptr %7, align 8, !tbaa !22
  %44 = load ptr, ptr %7, align 8, !tbaa !22
  store ptr %44, ptr %5, align 8, !tbaa !22
  %45 = load ptr, ptr %4, align 8, !tbaa !31
  call void @llvm.lifetime.start.p0(i64 16, ptr %9) #15
  %46 = call { ptr, ptr } @_ZSt9make_pairIRPKcS2_ESt4pairINSt25__strip_reference_wrapperINSt5decayIT_E4typeEE6__typeENS4_INS5_IT0_E4typeEE6__typeEEOS6_OSB_(ptr noundef nonnull align 8 dereferenceable(8) %6, ptr noundef nonnull align 8 dereferenceable(8) %8)
  %47 = getelementptr inbounds nuw { ptr, ptr }, ptr %9, i32 0, i32 0
  %48 = extractvalue { ptr, ptr } %46, 0
  store ptr %48, ptr %47, align 8
  %49 = getelementptr inbounds nuw { ptr, ptr }, ptr %9, i32 0, i32 1
  %50 = extractvalue { ptr, ptr } %46, 1
  store ptr %50, ptr %49, align 8
  %51 = call { ptr, i8 } @_ZNSt3mapINSt7__cxx1112basic_stringIcSt11char_traitsIcESaIcEEES5_St4lessIS5_ESaISt4pairIKS5_S5_EEE6insertIS8_IPKcSF_EEENSt9enable_ifIXsr16is_constructibleISA_T_EE5valueES8_ISt17_Rb_tree_iteratorISA_EbEE4typeEOSI_(ptr noundef nonnull align 8 dereferenceable(48) %45, ptr noundef nonnull align 8 dereferenceable(16) %9)
  %52 = getelementptr inbounds nuw { ptr, i8 }, ptr %10, i32 0, i32 0
  %53 = extractvalue { ptr, i8 } %51, 0
  store ptr %53, ptr %52, align 8
  %54 = getelementptr inbounds nuw { ptr, i8 }, ptr %10, i32 0, i32 1
  %55 = extractvalue { ptr, i8 } %51, 1
  store i8 %55, ptr %54, align 8
  call void @llvm.lifetime.end.p0(i64 16, ptr %9) #15
  call void @llvm.lifetime.end.p0(i64 8, ptr %8) #15
  call void @llvm.lifetime.end.p0(i64 8, ptr %7) #15
  call void @llvm.lifetime.end.p0(i64 8, ptr %6) #15
  br label %12, !llvm.loop !37

56:                                               ; preds = %17
  ret void
}

; Function Attrs: mustprogress uwtable
define available_externally noundef nonnull align 8 dereferenceable(32) ptr @_ZNSt7__cxx1112basic_stringIcSt11char_traitsIcESaIcEE6assignEPKc(ptr noundef nonnull align 8 dereferenceable(32) %0, ptr noundef %1) #3 align 2 {
  %3 = alloca ptr, align 8
  %4 = alloca ptr, align 8
  store ptr %0, ptr %3, align 8, !tbaa !18
  store ptr %1, ptr %4, align 8, !tbaa !22
  %5 = load ptr, ptr %3, align 8
  %6 = call noundef i64 @_ZNKSt7__cxx1112basic_stringIcSt11char_traitsIcESaIcEE4sizeEv(ptr noundef nonnull align 8 dereferenceable(32) %5) #15
  %7 = load ptr, ptr %4, align 8, !tbaa !22
  %8 = load ptr, ptr %4, align 8, !tbaa !22
  %9 = call noundef i64 @_ZNSt11char_traitsIcE6lengthEPKc(ptr noundef %8)
  %10 = call noundef nonnull align 8 dereferenceable(32) ptr @_ZNSt7__cxx1112basic_stringIcSt11char_traitsIcESaIcEE10_M_replaceEmmPKcm(ptr noundef nonnull align 8 dereferenceable(32) %5, i64 noundef 0, i64 noundef %6, ptr noundef %7, i64 noundef %9)
  ret ptr %10
}

; Function Attrs: mustprogress nounwind uwtable
define available_externally noundef ptr @_ZNKSt7__cxx1112basic_stringIcSt11char_traitsIcESaIcEE5c_strEv(ptr noundef nonnull align 8 dereferenceable(32) %0) #0 align 2 {
  %2 = alloca ptr, align 8
  store ptr %0, ptr %2, align 8, !tbaa !18
  %3 = load ptr, ptr %2, align 8
  %4 = call noundef ptr @_ZNKSt7__cxx1112basic_stringIcSt11char_traitsIcESaIcEE7_M_dataEv(ptr noundef nonnull align 8 dereferenceable(32) %3)
  ret ptr %4
}

; Function Attrs: mustprogress uwtable
define noundef zeroext i1 @_ZN7jsonnet7Jsonnet20evaluateSnippetMultiERKNSt7__cxx1112basic_stringIcSt11char_traitsIcESaIcEEES8_PSt3mapIS6_S6_St4lessIS6_ESaISt4pairIS7_S6_EEE(ptr noundef nonnull align 8 dereferenceable(40) %0, ptr noundef nonnull align 8 dereferenceable(32) %1, ptr noundef nonnull align 8 dereferenceable(32) %2, ptr noundef %3) #3 align 2 {
  %5 = alloca i1, align 1
  %6 = alloca ptr, align 8
  %7 = alloca ptr, align 8
  %8 = alloca ptr, align 8
  %9 = alloca ptr, align 8
  %10 = alloca i32, align 4
  %11 = alloca ptr, align 8
  %12 = alloca i32, align 4
  store ptr %0, ptr %6, align 8, !tbaa !6
  store ptr %1, ptr %7, align 8, !tbaa !18
  store ptr %2, ptr %8, align 8, !tbaa !18
  store ptr %3, ptr %9, align 8, !tbaa !31
  %13 = load ptr, ptr %6, align 8
  %14 = load ptr, ptr %9, align 8, !tbaa !31
  %15 = icmp eq ptr %14, null
  br i1 %15, label %16, label %17

16:                                               ; preds = %4
  store i1 false, ptr %5, align 1
  br label %43

17:                                               ; preds = %4
  call void @llvm.lifetime.start.p0(i64 4, ptr %10) #15
  store i32 0, ptr %10, align 4, !tbaa !23
  call void @llvm.lifetime.start.p0(i64 8, ptr %11) #15
  %18 = getelementptr inbounds nuw %"class.jsonnet::Jsonnet", ptr %13, i32 0, i32 0
  %19 = load ptr, ptr %18, align 8, !tbaa !11
  %20 = load ptr, ptr %7, align 8, !tbaa !18
  %21 = call noundef ptr @_ZNKSt7__cxx1112basic_stringIcSt11char_traitsIcESaIcEE5c_strEv(ptr noundef nonnull align 8 dereferenceable(32) %20) #15
  %22 = load ptr, ptr %8, align 8, !tbaa !18
  %23 = call noundef ptr @_ZNKSt7__cxx1112basic_stringIcSt11char_traitsIcESaIcEE5c_strEv(ptr noundef nonnull align 8 dereferenceable(32) %22) #15
  %24 = call ptr @jsonnet_evaluate_snippet_multi(ptr noundef %19, ptr noundef %21, ptr noundef %23, ptr noundef %10)
  store ptr %24, ptr %11, align 8, !tbaa !22
  %25 = load i32, ptr %10, align 4, !tbaa !23
  %26 = icmp ne i32 %25, 0
  br i1 %26, label %27, label %35

27:                                               ; preds = %17
  %28 = getelementptr inbounds nuw %"class.jsonnet::Jsonnet", ptr %13, i32 0, i32 1
  %29 = load ptr, ptr %11, align 8, !tbaa !22
  %30 = call noundef nonnull align 8 dereferenceable(32) ptr @_ZNSt7__cxx1112basic_stringIcSt11char_traitsIcESaIcEE6assignEPKc(ptr noundef nonnull align 8 dereferenceable(32) %28, ptr noundef %29)
  %31 = getelementptr inbounds nuw %"class.jsonnet::Jsonnet", ptr %13, i32 0, i32 0
  %32 = load ptr, ptr %31, align 8, !tbaa !11
  %33 = load ptr, ptr %11, align 8, !tbaa !22
  %34 = call ptr @jsonnet_realloc(ptr noundef %32, ptr noundef %33, i64 noundef 0)
  store i1 false, ptr %5, align 1
  store i32 1, ptr %12, align 4
  br label %42

35:                                               ; preds = %17
  %36 = load ptr, ptr %11, align 8, !tbaa !22
  %37 = load ptr, ptr %9, align 8, !tbaa !31
  call void @_ZN7jsonnet12_GLOBAL__N_116parseMultiOutputEPKcPSt3mapINSt7__cxx1112basic_stringIcSt11char_traitsIcESaIcEEES9_St4lessIS9_ESaISt4pairIKS9_S9_EEE(ptr noundef %36, ptr noundef %37)
  %38 = getelementptr inbounds nuw %"class.jsonnet::Jsonnet", ptr %13, i32 0, i32 0
  %39 = load ptr, ptr %38, align 8, !tbaa !11
  %40 = load ptr, ptr %11, align 8, !tbaa !22
  %41 = call ptr @jsonnet_realloc(ptr noundef %39, ptr noundef %40, i64 noundef 0)
  store i1 true, ptr %5, align 1
  store i32 1, ptr %12, align 4
  br label %42

42:                                               ; preds = %35, %27
  call void @llvm.lifetime.end.p0(i64 8, ptr %11) #15
  call void @llvm.lifetime.end.p0(i64 4, ptr %10) #15
  br label %43

43:                                               ; preds = %42, %16
  %44 = load i1, ptr %5, align 1
  ret i1 %44
}