; Function Attrs: mustprogress uwtable
define noundef zeroext i1 @_ZN7jsonnet7Jsonnet20evaluateSnippetMultiERKNSt7__cxx1112basic_stringIcSt11char_traitsIcESaIcEEES8_PSt3mapIS6_S6_St4lessIS6_ESaISt4pairIS7_S6_EEE(ptr noundef nonnull align 8 dereferenceable(40) %0, ptr noundef nonnull readonly align 8 captures(none) dereferenceable(32) %1, ptr noundef nonnull readonly align 8 captures(none) dereferenceable(32) %2, ptr noundef %3) local_unnamed_addr #5 align 2 {
  %5 = alloca %"struct.std::pair.3", align 8
  %6 = alloca i32, align 4
  %7 = icmp eq ptr %3, null
  br i1 %7, label %35, label %8

8:                                                ; preds = %4
  call void @llvm.lifetime.start.p0(i64 4, ptr nonnull %6) #18
  store i32 0, ptr %6, align 4, !tbaa !21
  %9 = load ptr, ptr %0, align 8, !tbaa !6
  %10 = load ptr, ptr %1, align 8, !tbaa !19
  %11 = load ptr, ptr %2, align 8, !tbaa !19
  %12 = call ptr @jsonnet_evaluate_snippet_multi(ptr noundef %9, ptr noundef %10, ptr noundef %11, ptr noundef nonnull %6)
  %13 = load i32, ptr %6, align 4, !tbaa !21
  %.not = icmp eq i32 %13, 0
  br i1 %.not, label %20, label %14

14:                                               ; preds = %8
  %15 = getelementptr inbounds nuw i8, ptr %0, i64 8
  %16 = getelementptr inbounds nuw i8, ptr %0, i64 16
  %17 = load i64, ptr %16, align 8, !tbaa !17
  %18 = call noundef i64 @strlen(ptr noundef nonnull dereferenceable(1) %12) #18
  %19 = call noundef nonnull align 8 dereferenceable(32) ptr @_ZNSt7__cxx1112basic_stringIcSt11char_traitsIcESaIcEE10_M_replaceEmmPKcm(ptr noundef nonnull align 8 dereferenceable(32) %15, i64 noundef 0, i64 noundef %17, ptr noundef nonnull %12, i64 noundef %18)
  br label %_ZN7jsonnet12_GLOBAL__N_116parseMultiOutputEPKcPSt3mapINSt7__cxx1112basic_stringIcSt11char_traitsIcESaIcEEES9_St4lessIS9_ESaISt4pairIKS9_S9_EEE.exit

20:                                               ; preds = %8
  %21 = load i8, ptr %12, align 1, !tbaa !18
  %.not18.i = icmp eq i8 %21, 0
  br i1 %.not18.i, label %_ZN7jsonnet12_GLOBAL__N_116parseMultiOutputEPKcPSt3mapINSt7__cxx1112basic_stringIcSt11char_traitsIcESaIcEEES9_St4lessIS9_ESaISt4pairIKS9_S9_EEE.exit, label %.preheader.lr.ph.i

.preheader.lr.ph.i:                               ; preds = %20
  %22 = getelementptr inbounds nuw i8, ptr %5, i64 8
  br label %.preheader.i

.preheader.i:                                     ; preds = %30, %.preheader.lr.ph.i
  %.019.i = phi ptr [ %12, %.preheader.lr.ph.i ], [ %29, %30 ]
  br label %23

23:                                               ; preds = %23, %.preheader.i
  %.01317.i = phi ptr [ %.019.i, %.preheader.i ], [ %24, %23 ]
  %24 = getelementptr inbounds nuw i8, ptr %.01317.i, i64 1
  %.pr.i = load i8, ptr %24, align 1, !tbaa !18
  %.not14.i = icmp eq i8 %.pr.i, 0
  br i1 %.not14.i, label %25, label %23, !llvm.loop !23

25:                                               ; preds = %23
  %26 = getelementptr inbounds nuw i8, ptr %.01317.i, i64 2
  br label %27

27:                                               ; preds = %27, %25
  %.1.i = phi ptr [ %26, %25 ], [ %29, %27 ]
  %28 = load i8, ptr %.1.i, align 1, !tbaa !18
  %.not15.i = icmp eq i8 %28, 0
  %29 = getelementptr inbounds nuw i8, ptr %.1.i, i64 1
  br i1 %.not15.i, label %30, label %27, !llvm.loop !25

30:                                               ; preds = %27
  call void @llvm.lifetime.start.p0(i64 16, ptr nonnull %5) #18
  store ptr %.019.i, ptr %5, align 8
  store ptr %26, ptr %22, align 8
  %31 = call { ptr, i8 } @_ZNSt8_Rb_treeINSt7__cxx1112basic_stringIcSt11char_traitsIcESaIcEEESt4pairIKS5_S5_ESt10_Select1stIS8_ESt4lessIS5_ESaIS8_EE17_M_emplace_uniqueIJS6_IPKcSH_EEEES6_ISt17_Rb_tree_iteratorIS8_EbEDpOT_(ptr noundef nonnull align 8 dereferenceable(48) %3, ptr noundef nonnull align 8 dereferenceable(16) %5)
  call void @llvm.lifetime.end.p0(i64 16, ptr nonnull %5) #18
  %32 = load i8, ptr %29, align 1, !tbaa !18
  %.not.i = icmp eq i8 %32, 0
  br i1 %.not.i, label %_ZN7jsonnet12_GLOBAL__N_116parseMultiOutputEPKcPSt3mapINSt7__cxx1112basic_stringIcSt11char_traitsIcESaIcEEES9_St4lessIS9_ESaISt4pairIKS9_S9_EEE.exit, label %.preheader.i, !llvm.loop !26

_ZN7jsonnet12_GLOBAL__N_116parseMultiOutputEPKcPSt3mapINSt7__cxx1112basic_stringIcSt11char_traitsIcESaIcEEES9_St4lessIS9_ESaISt4pairIKS9_S9_EEE.exit: ; preds = %30, %20, %14
  %33 = load ptr, ptr %0, align 8, !tbaa !6
  %34 = call ptr @jsonnet_realloc(ptr noundef %33, ptr noundef nonnull %12, i64 noundef 0)
  call void @llvm.lifetime.end.p0(i64 4, ptr nonnull %6) #18
  br label %35

35:                                               ; preds = %4, %_ZN7jsonnet12_GLOBAL__N_116parseMultiOutputEPKcPSt3mapINSt7__cxx1112basic_stringIcSt11char_traitsIcESaIcEEES9_St4lessIS9_ESaISt4pairIKS9_S9_EEE.exit
  %.0 = phi i1 [ %.not, %_ZN7jsonnet12_GLOBAL__N_116parseMultiOutputEPKcPSt3mapINSt7__cxx1112basic_stringIcSt11char_traitsIcESaIcEEES9_St4lessIS9_ESaISt4pairIKS9_S9_EEE.exit ], [ false, %4 ]
  ret i1 %.0
}